target datalayout = "e-m:e-p270:32:32-p271:32:32-p272:64:64-i64:64-i128:128-f80:128-n8:16:32:64-S128"
target triple = "x86_64-pc-linux-gnu"

%struct.MVDependency = type { double, i16, [0 x i16] }
%struct.MVDependencies = type { i32, i32, i32, [0 x ptr] }
%struct.StringInfoData = type { ptr, i32, i32, i32 }
%struct.FunctionCallInfoBaseData = type { ptr, ptr, ptr, i32, i8, i16, [0 x %struct.NullableDatum] }
%struct.NullableDatum = type { i64, i8 }

@.str.11 = private unnamed_addr constant [3 x i8] c", \00", align 1
@.str.12 = private unnamed_addr constant [5 x i8] c" => \00", align 1
@.str.13 = private unnamed_addr constant [3 x i8] c"%d\00", align 1
@.str.14 = private unnamed_addr constant [6 x i8] c"\22: %f\00", align 1

; Function Attrs: inlinehint nounwind uwtable
define internal i64 @PointerGetDatum(ptr noundef %0) #3 {
  %2 = alloca ptr, align 8
  store ptr %0, ptr %2, align 8
  %3 = load ptr, ptr %2, align 8
  %4 = ptrtoint ptr %3 to i64
  ret i64 %4
}

; Function Attrs: inlinehint nounwind uwtable
define internal i64 @CStringGetDatum(ptr noundef %0) #3 {
  %2 = alloca ptr, align 8
  store ptr %0, ptr %2, align 8
  %3 = load ptr, ptr %2, align 8
  %4 = call i64 @PointerGetDatum(ptr noundef %3)
  ret i64 %4
}

; Function Attrs: inlinehint nounwind uwtable
define internal ptr @DatumGetPointer(i64 noundef %0) #3 {
  %2 = alloca i64, align 8
  store i64 %0, ptr %2, align 8
  %3 = load i64, ptr %2, align 8
  %4 = inttoptr i64 %3 to ptr
  ret ptr %4
}

; Function Attrs: nounwind uwtable
define dso_local i64 @pg_dependencies_out(ptr noundef %0) #0 {
  %2 = alloca ptr, align 8
  %3 = alloca ptr, align 8
  %4 = alloca ptr, align 8
  %5 = alloca i32, align 4
  %6 = alloca i32, align 4
  %7 = alloca %struct.StringInfoData, align 8
  %8 = alloca ptr, align 8
  store ptr %0, ptr %2, align 8
  call void @llvm.lifetime.start.p0(i64 8, ptr %3) #8
  %9 = load ptr, ptr %2, align 8
  %10 = getelementptr inbounds nuw %struct.FunctionCallInfoBaseData, ptr %9, i32 0, i32 6
  %11 = getelementptr inbounds [0 x %struct.NullableDatum], ptr %10, i64 0, i64 0
  %12 = getelementptr inbounds nuw %struct.NullableDatum, ptr %11, i32 0, i32 0
  %13 = load i64, ptr %12, align 8
  %14 = call ptr @DatumGetPointer(i64 noundef %13)
  %15 = call ptr @pg_detoast_datum_packed(ptr noundef %14)
  store ptr %15, ptr %3, align 8
  call void @llvm.lifetime.start.p0(i64 8, ptr %4) #8
  %16 = load ptr, ptr %3, align 8
  %17 = call ptr @statext_dependencies_deserialize(ptr noundef %16)
  store ptr %17, ptr %4, align 8
  call void @llvm.lifetime.start.p0(i64 4, ptr %5) #8
  call void @llvm.lifetime.start.p0(i64 4, ptr %6) #8
  call void @llvm.lifetime.start.p0(i64 24, ptr %7) #8
  call void @initStringInfo(ptr noundef %7)
  call void @appendStringInfoChar(ptr noundef %7, i8 noundef signext 123)
  store i32 0, ptr %5, align 4
  br label %18

18:                                               ; preds = %71, %1
  %19 = load i32, ptr %5, align 4
  %20 = load ptr, ptr %4, align 8
  %21 = getelementptr inbounds nuw %struct.MVDependencies, ptr %20, i32 0, i32 2
  %22 = load i32, ptr %21, align 8
  %23 = icmp ult i32 %19, %22
  br i1 %23, label %24, label %74

24:                                               ; preds = %18
  call void @llvm.lifetime.start.p0(i64 8, ptr %8) #8
  %25 = load ptr, ptr %4, align 8
  %26 = getelementptr inbounds nuw %struct.MVDependencies, ptr %25, i32 0, i32 3
  %27 = load i32, ptr %5, align 4
  %28 = sext i32 %27 to i64
  %29 = getelementptr inbounds [0 x ptr], ptr %26, i64 0, i64 %28
  %30 = load ptr, ptr %29, align 8
  store ptr %30, ptr %8, align 8
  %31 = load i32, ptr %5, align 4
  %32 = icmp sgt i32 %31, 0
  br i1 %32, label %33, label %34

33:                                               ; preds = %24
  call void @appendStringInfoString(ptr noundef %7, ptr noundef @.str.11)
  br label %34

34:                                               ; preds = %33, %24
  call void @appendStringInfoChar(ptr noundef %7, i8 noundef signext 34)
  store i32 0, ptr %6, align 4
  br label %35

35:                                               ; preds = %64, %34
  %36 = load i32, ptr %6, align 4
  %37 = load ptr, ptr %8, align 8
  %38 = getelementptr inbounds nuw %struct.MVDependency, ptr %37, i32 0, i32 1
  %39 = load i16, ptr %38, align 8
  %40 = sext i16 %39 to i32
  %41 = icmp slt i32 %36, %40
  br i1 %41, label %42, label %67

42:                                               ; preds = %35
  %43 = load i32, ptr %6, align 4
  %44 = load ptr, ptr %8, align 8
  %45 = getelementptr inbounds nuw %struct.MVDependency, ptr %44, i32 0, i32 1
  %46 = load i16, ptr %45, align 8
  %47 = sext i16 %46 to i32
  %48 = sub i32 %47, 1
  %49 = icmp eq i32 %43, %48
  br i1 %49, label %50, label %51

50:                                               ; preds = %42
  call void @appendStringInfoString(ptr noundef %7, ptr noundef @.str.12)
  br label %56

51:                                               ; preds = %42
  %52 = load i32, ptr %6, align 4
  %53 = icmp sgt i32 %52, 0
  br i1 %53, label %54, label %55

54:                                               ; preds = %51
  call void @appendStringInfoString(ptr noundef %7, ptr noundef @.str.11)
  br label %55

55:                                               ; preds = %54, %51
  br label %56

56:                                               ; preds = %55, %50
  %57 = load ptr, ptr %8, align 8
  %58 = getelementptr inbounds nuw %struct.MVDependency, ptr %57, i32 0, i32 2
  %59 = load i32, ptr %6, align 4
  %60 = sext i32 %59 to i64
  %61 = getelementptr inbounds [0 x i16], ptr %58, i64 0, i64 %60
  %62 = load i16, ptr %61, align 2
  %63 = sext i16 %62 to i32
  call void (ptr, ptr, ...) @appendStringInfo(ptr noundef %7, ptr noundef @.str.13, i32 noundef %63)
  br label %64

64:                                               ; preds = %56
  %65 = load i32, ptr %6, align 4
  %66 = add i32 %65, 1
  store i32 %66, ptr %6, align 4
  br label %35, !llvm.loop !16

67:                                               ; preds = %35
  %68 = load ptr, ptr %8, align 8
  %69 = getelementptr inbounds nuw %struct.MVDependency, ptr %68, i32 0, i32 0
  %70 = load double, ptr %69, align 8
  call void (ptr, ptr, ...) @appendStringInfo(ptr noundef %7, ptr noundef @.str.14, double noundef %70)
  call void @llvm.lifetime.end.p0(i64 8, ptr %8) #8
  br label %71

71:                                               ; preds = %67
  %72 = load i32, ptr %5, align 4
  %73 = add i32 %72, 1
  store i32 %73, ptr %5, align 4
  br label %18, !llvm.loop !17

74:                                               ; preds = %18
  call void @appendStringInfoChar(ptr noundef %7, i8 noundef signext 125)
  %75 = getelementptr inbounds nuw %struct.StringInfoData, ptr %7, i32 0, i32 0
  %76 = load ptr, ptr %75, align 8
  %77 = call i64 @CStringGetDatum(ptr noundef %76)
  call void @llvm.lifetime.end.p0(i64 24, ptr %7) #8
  call void @llvm.lifetime.end.p0(i64 4, ptr %6) #8
  call void @llvm.lifetime.end.p0(i64 4, ptr %5) #8
  call void @llvm.lifetime.end.p0(i64 8, ptr %4) #8
  call void @llvm.lifetime.end.p0(i64 8, ptr %3) #8
  ret i64 %77
}