; Function Attrs: nounwind uwtable
define dso_local i64 @pg_dependencies_out(ptr noundef readonly captures(none) %0) local_unnamed_addr #0 {
  %2 = alloca %struct.StringInfoData, align 8
  %3 = getelementptr inbounds nuw i8, ptr %0, i64 32
  %4 = load i64, ptr %3, align 8
  %5 = inttoptr i64 %4 to ptr
  %6 = tail call ptr @pg_detoast_datum_packed(ptr noundef %5) #8
  %7 = tail call ptr @statext_dependencies_deserialize(ptr noundef %6)
  call void @llvm.lifetime.start.p0(i64 24, ptr nonnull %2) #8
  call void @initStringInfo(ptr noundef nonnull %2) #8
  call void @appendStringInfoChar(ptr noundef nonnull %2, i8 noundef signext 123) #8
  %8 = getelementptr inbounds nuw i8, ptr %7, i64 8
  %9 = load i32, ptr %8, align 8
  %.not23 = icmp eq i32 %9, 0
  br i1 %.not23, label %._crit_edge22, label %.lr.ph21

.lr.ph21:                                         ; preds = %1
  %10 = getelementptr inbounds nuw i8, ptr %7, i64 16
  br label %11

11:                                               ; preds = %.lr.ph21, %._crit_edge
  %.019 = phi i32 [ 0, %.lr.ph21 ], [ %38, %._crit_edge ]
  %12 = sext i32 %.019 to i64
  %13 = getelementptr inbounds [0 x ptr], ptr %10, i64 0, i64 %12
  %14 = load ptr, ptr %13, align 8
  %15 = icmp sgt i32 %.019, 0
  br i1 %15, label %16, label %17

16:                                               ; preds = %11
  call void @appendStringInfoString(ptr noundef nonnull %2, ptr noundef nonnull @.str.11) #8
  br label %17

17:                                               ; preds = %16, %11
  call void @appendStringInfoChar(ptr noundef nonnull %2, i8 noundef signext 34) #8
  %18 = getelementptr inbounds nuw i8, ptr %14, i64 8
  %19 = load i16, ptr %18, align 8
  %20 = icmp sgt i16 %19, 0
  br i1 %20, label %.lr.ph, label %._crit_edge

.lr.ph:                                           ; preds = %17
  %21 = zext nneg i16 %19 to i64
  %22 = getelementptr inbounds nuw i8, ptr %14, i64 10
  br label %23

23:                                               ; preds = %.lr.ph, %29
  %indvars.iv = phi i64 [ 0, %.lr.ph ], [ %indvars.iv.next, %29 ]
  %24 = phi i64 [ %21, %.lr.ph ], [ %34, %29 ]
  %25 = add nsw i64 %24, 4294967295
  %26 = and i64 %25, 4294967295
  %27 = icmp eq i64 %indvars.iv, %26
  br i1 %27, label %.sink.split, label %28

28:                                               ; preds = %23
  %.not = icmp eq i64 %indvars.iv, 0
  br i1 %.not, label %29, label %.sink.split

.sink.split:                                      ; preds = %28, %23
  %.str.11.sink = phi ptr [ @.str.12, %23 ], [ @.str.11, %28 ]
  call void @appendStringInfoString(ptr noundef nonnull %2, ptr noundef nonnull %.str.11.sink) #8
  br label %29

29:                                               ; preds = %.sink.split, %28
  %30 = getelementptr inbounds nuw [0 x i16], ptr %22, i64 0, i64 %indvars.iv
  %31 = load i16, ptr %30, align 2
  %32 = sext i16 %31 to i32
  call void (ptr, ptr, ...) @appendStringInfo(ptr noundef nonnull %2, ptr noundef nonnull @.str.13, i32 noundef %32) #8
  %indvars.iv.next = add nuw nsw i64 %indvars.iv, 1
  %33 = load i16, ptr %18, align 8
  %34 = sext i16 %33 to i64
  %35 = sext i16 %33 to i64
  %36 = icmp slt i64 %indvars.iv.next, %35
  br i1 %36, label %23, label %._crit_edge, !llvm.loop !16

._crit_edge:                                      ; preds = %29, %17
  %37 = load double, ptr %14, align 8
  call void (ptr, ptr, ...) @appendStringInfo(ptr noundef nonnull %2, ptr noundef nonnull @.str.14, double noundef %37) #8
  %38 = add nuw i32 %.019, 1
  %39 = load i32, ptr %8, align 8
  %40 = icmp ult i32 %38, %39
  br i1 %40, label %11, label %._crit_edge22, !llvm.loop !17

._crit_edge22:                                    ; preds = %._crit_edge, %1
  call void @appendStringInfoChar(ptr noundef nonnull %2, i8 noundef signext 125) #8
  %41 = load ptr, ptr %2, align 8
  %42 = ptrtoint ptr %41 to i64
  call void @llvm.lifetime.end.p0(i64 24, ptr nonnull %2) #8
  ret i64 %42
}